target datalayout = "e-m:e-p270:32:32-p271:32:32-p272:64:64-i64:64-i128:128-f80:128-n8:16:32:64-S128"
target triple = "x86_64-pc-linux-gnu"

%"struct.std::_Rb_tree_header" = type { %"struct.std::_Rb_tree_node_base", i64 }
%"struct.std::_Rb_tree_node_base" = type { i32, ptr, ptr, ptr }
%"struct.std::_Rb_tree_key_compare.5" = type { %"struct.std::less.6" }
%"struct.std::less.6" = type { i8 }
%class.GroupProbElem = type { %class.ProbElem, i8, %"class.std::__cxx11::basic_string", %"class.std::map.26" }
%class.ProbElem = type { ptr }
%"class.std::__cxx11::basic_string" = type { %"struct.std::__cxx11::basic_string<char>::_Alloc_hider", i64, %union.anon }
%"struct.std::__cxx11::basic_string<char>::_Alloc_hider" = type { ptr }
%union.anon = type { i64, [8 x i8] }
%"class.std::map.26" = type { %"class.std::_Rb_tree.27" }
%"class.std::_Rb_tree.27" = type { %"struct.std::_Rb_tree<ProbName, std::pair<const ProbName, SingleProbElem *>, std::_Select1st<std::pair<const ProbName, SingleProbElem *>>, std::less<ProbName>>::_Rb_tree_impl" }
%"struct.std::_Rb_tree<ProbName, std::pair<const ProbName, SingleProbElem *>, std::_Select1st<std::pair<const ProbName, SingleProbElem *>>, std::less<ProbName>>::_Rb_tree_impl" = type { %"struct.std::_Rb_tree_key_compare.5", %"struct.std::_Rb_tree_header" }

; Function Attrs: mustprogress uwtable
define dso_local void @_ZN13GroupProbElem8set_probE8ProbNamei(ptr noundef nonnull align 8 dereferenceable(96) %0, i32 noundef %1, i32 noundef %2) unnamed_addr #4 align 2 {
  %4 = alloca ptr, align 8
  %5 = alloca i32, align 4
  %6 = alloca i32, align 4
  %7 = alloca ptr, align 8
  store ptr %0, ptr %4, align 8
  store i32 %1, ptr %5, align 4
  store i32 %2, ptr %6, align 4
  %8 = load ptr, ptr %4, align 8
  %9 = getelementptr inbounds %class.GroupProbElem, ptr %8, i32 0, i32 3
  %10 = call noundef nonnull align 8 dereferenceable(8) ptr @_ZNSt3mapI8ProbNameP14SingleProbElemSt4lessIS0_ESaISt4pairIKS0_S2_EEEixERS6_(ptr noundef nonnull align 8 dereferenceable(48) %9, ptr noundef nonnull align 4 dereferenceable(4) %5)
  %11 = load ptr, ptr %10, align 8
  store ptr %11, ptr %7, align 8
  %12 = load ptr, ptr %7, align 8
  %13 = load i32, ptr %5, align 4
  %14 = load i32, ptr %6, align 4
  %15 = load ptr, ptr %12, align 8
  %16 = getelementptr inbounds ptr, ptr %15, i64 3
  %17 = load ptr, ptr %16, align 8
  call void %17(ptr noundef nonnull align 8 dereferenceable(52) %12, i32 noundef %13, i32 noundef %14)
  ret void
}