; Function Attrs: mustprogress uwtable
define dso_local void @_ZN13GroupProbElem8set_probE8ProbNamei(ptr noundef nonnull align 8 dereferenceable(96) %0, i32 noundef %1, i32 noundef %2) unnamed_addr #3 align 2 {
  %4 = alloca i32, align 4
  store i32 %1, ptr %4, align 4
  %5 = getelementptr inbounds i8, ptr %0, i64 48
  %6 = call noundef nonnull align 8 dereferenceable(8) ptr @_ZNSt3mapI8ProbNameP14SingleProbElemSt4lessIS0_ESaISt4pairIKS0_S2_EEEixERS6_(ptr noundef nonnull align 8 dereferenceable(48) %5, ptr noundef nonnull align 4 dereferenceable(4) %4)
  %7 = load ptr, ptr %6, align 8
  %8 = load i32, ptr %4, align 4
  %9 = load ptr, ptr %7, align 8
  %10 = getelementptr inbounds i8, ptr %9, i64 24
  %11 = load ptr, ptr %10, align 8
  call void %11(ptr noundef nonnull align 8 dereferenceable(52) %7, i32 noundef %8, i32 noundef %2)
  ret void
}